; Function Attrs: null_pointer_is_valid sspstrong uwtable
define internal range(i32 0, 5) i32 @dissect_eip_security_apply_config(ptr readnone captures(none) %0, ptr noundef %1, ptr readnone captures(none) %2, ptr noundef %3, i32 noundef %4, i1 noundef zeroext %5) #0 {
  br i1 %5, label %7, label %13

7:                                                ; preds = %6
  %8 = load i32, ptr @hf_eip_security_apply_behavior_flags, align 4
  %9 = tail call ptr @proto_tree_add_item(ptr noundef %1, i32 noundef %8, ptr noundef %3, i32 noundef %4, i32 noundef 2, i32 noundef -2147483648)
  %10 = load i32, ptr @hf_eip_security_close_delay, align 4
  %11 = add i32 %4, 2
  %12 = tail call ptr @proto_tree_add_item(ptr noundef %1, i32 noundef %10, ptr noundef %3, i32 noundef %11, i32 noundef 2, i32 noundef -2147483648)
  br label %13

13:                                               ; preds = %6, %7
  %.0 = phi i32 [ 4, %7 ], [ 0, %6 ]
  ret i32 %.0
}